; ModuleID = '44/70.c'
source_filename = "44/70.c"
target datalayout = "e-m:e-p270:32:32-p271:32:32-p272:64:64-i64:64-f80:128-n8:16:32:64-S128"
target triple = "x86_64-pc-linux-gnu"

@.str = private unnamed_addr constant [3 x i8] c"%d\00", align 1
@.str.1 = private unnamed_addr constant [4 x i8] c"%d\0A\00", align 1

; Function Attrs: noinline nounwind uwtable
define dso_local i32 @main() #0 {
  %1 = alloca i32, align 4
  %2 = alloca i32, align 4
  %3 = alloca i32, align 4
  %4 = alloca i32, align 4
  store i32 0, i32* %1, align 4
  store i32 1, i32* %2, align 4
  br label %5

5:                                                ; preds = %14, %0
  %6 = load i32, i32* %2, align 4
  %7 = icmp sle i32 %6, 6
  br i1 %7, label %8, label %17

8:                                                ; preds = %5
  %9 = call i32 (i8*, ...) @__isoc99_scanf(i8* getelementptr inbounds ([3 x i8], [3 x i8]* @.str, i64 0, i64 0), i32* %3)
  %10 = load i32, i32* %3, align 4
  %11 = call i32 @reverse(i32 %10)
  store i32 %11, i32* %4, align 4
  %12 = load i32, i32* %4, align 4
  %13 = call i32 (i8*, ...) @printf(i8* getelementptr inbounds ([4 x i8], [4 x i8]* @.str.1, i64 0, i64 0), i32 %12)
  br label %14

14:                                               ; preds = %8
  %15 = load i32, i32* %2, align 4
  %16 = add nsw i32 %15, 1
  store i32 %16, i32* %2, align 4
  br label %5

17:                                               ; preds = %5
  %18 = load i32, i32* %1, align 4
  ret i32 %18
}

declare dso_local i32 @__isoc99_scanf(i8*, ...) #1

; Function Attrs: noinline nounwind uwtable
define dso_local i32 @reverse(i32 %0) #0 {
  %2 = alloca i32, align 4
  %3 = alloca i32, align 4
  store i32 %0, i32* %2, align 4
  %4 = load i32, i32* %2, align 4
  %5 = icmp sgt i32 %4, 0
  br i1 %5, label %6, label %9

6:                                                ; preds = %1
  %7 = load i32, i32* %2, align 4
  %8 = call i32 @R(i32 %7)
  store i32 %8, i32* %3, align 4
  br label %19

9:                                                ; preds = %1
  %10 = load i32, i32* %2, align 4
  %11 = icmp slt i32 %10, 0
  br i1 %11, label %12, label %17

12:                                               ; preds = %9
  %13 = load i32, i32* %2, align 4
  %14 = sub nsw i32 0, %13
  %15 = call i32 @R(i32 %14)
  %16 = sub nsw i32 0, %15
  store i32 %16, i32* %3, align 4
  br label %18

17:                                               ; preds = %9
  store i32 0, i32* %3, align 4
  br label %18

18:                                               ; preds = %17, %12
  br label %19

19:                                               ; preds = %18, %6
  %20 = load i32, i32* %3, align 4
  ret i32 %20
}

declare dso_local i32 @printf(i8*, ...) #1

; Function Attrs: noinline nounwind uwtable
define dso_local i32 @R(i32 %0) #0 {
  %2 = alloca i32, align 4
  %3 = alloca i32, align 4
  %4 = alloca i32, align 4
  %5 = alloca i32, align 4
  store i32 %0, i32* %2, align 4
  store i32 0, i32* %5, align 4
  store i32 1, i32* %3, align 4
  br label %6

6:                                                ; preds = %18, %1
  %7 = load i32, i32* %2, align 4
  %8 = icmp sgt i32 %7, 0
  br i1 %8, label %9, label %21

9:                                                ; preds = %6
  %10 = load i32, i32* %2, align 4
  %11 = srem i32 %10, 10
  store i32 %11, i32* %4, align 4
  %12 = load i32, i32* %5, align 4
  %13 = mul nsw i32 %12, 10
  %14 = load i32, i32* %4, align 4
  %15 = add nsw i32 %13, %14
  store i32 %15, i32* %5, align 4
  %16 = load i32, i32* %2, align 4
  %17 = sdiv i32 %16, 10
  store i32 %17, i32* %2, align 4
  br label %18

18:                                               ; preds = %9
  %19 = load i32, i32* %3, align 4
  %20 = add nsw i32 %19, 1
  store i32 %20, i32* %3, align 4
  br label %6

21:                                               ; preds = %6
  %22 = load i32, i32* %5, align 4
  ret i32 %22
}


!llvm.module.flags = !{!0}
!llvm.ident = !{!1}

!0 = !{i32 1, !"wchar_size", i32 4}
!1 = !{!"clang version 10.0.0-4ubuntu1 "}
